; Function Attrs: nounwind uwtable
define internal ptr @get_audio_buffer(ptr noundef %0, i32 noundef %1) #1 {
  %3 = getelementptr inbounds nuw i8, ptr %0, i64 16
  %4 = load ptr, ptr %3, align 8, !tbaa !66
  %5 = getelementptr inbounds nuw i8, ptr %4, i64 72
  %6 = load ptr, ptr %5, align 8, !tbaa !4
  %7 = getelementptr inbounds nuw i8, ptr %6, i64 84
  %8 = load i32, ptr %7, align 4, !tbaa !49
  %.not = icmp eq i32 %8, 0
  br i1 %.not, label %11, label %9

9:                                                ; preds = %2
  %10 = tail call ptr @ff_null_get_audio_buffer(ptr noundef nonnull %0, i32 noundef %1) #11
  br label %13

11:                                               ; preds = %2
  %12 = tail call ptr @ff_default_get_audio_buffer(ptr noundef nonnull %0, i32 noundef %1) #11
  br label %13

13:                                               ; preds = %11, %9
  %14 = phi ptr [ %10, %9 ], [ %12, %11 ]
  ret ptr %14
}